target datalayout = "e-m:e-p270:32:32-p271:32:32-p272:64:64-i64:64-i128:128-f80:128-n8:16:32:64-S128"
target triple = "x86_64-pc-linux-gnu"

%"class.icu_77::TimeZoneTransition" = type { %"class.icu_77::UObject", double, ptr, ptr }
%"class.icu_77::UObject" = type { ptr }

@_ZTVN6icu_7718TimeZoneTransitionE = unnamed_addr constant { [5 x ptr] } { [5 x ptr] [ptr null, ptr @_ZTIN6icu_7718TimeZoneTransitionE, ptr @_ZN6icu_7718TimeZoneTransitionD1Ev, ptr @_ZN6icu_7718TimeZoneTransitionD0Ev, ptr @_ZNK6icu_7718TimeZoneTransition17getDynamicClassIDEv] }, align 8
@_ZTVN6icu_777UObjectE = available_externally unnamed_addr constant { [5 x ptr] } { [5 x ptr] [ptr null, ptr @_ZTIN6icu_777UObjectE, ptr @_ZN6icu_777UObjectD1Ev, ptr @_ZN6icu_777UObjectD0Ev, ptr @_ZNK6icu_777UObject17getDynamicClassIDEv] }, align 8

; Function Attrs: inlinehint mustprogress nounwind uwtable
define linkonce_odr void @_ZN6icu_777UObjectC2Ev(ptr noundef nonnull align 8 dereferenceable(8) %0) unnamed_addr #3 comdat align 2 {
  %2 = alloca ptr, align 8
  store ptr %0, ptr %2, align 8, !tbaa !19
  %3 = load ptr, ptr %2, align 8
  store ptr getelementptr inbounds inrange(-16, 24) ({ [5 x ptr] }, ptr @_ZTVN6icu_777UObjectE, i32 0, i32 0, i32 2), ptr %3, align 8, !tbaa !12
  ret void
}

; Function Attrs: mustprogress uwtable
define void @_ZN6icu_7718TimeZoneTransitionC2ERKS0_(ptr noundef nonnull align 8 dereferenceable(32) %0, ptr noundef nonnull align 8 dereferenceable(32) %1) unnamed_addr #1 align 2 personality ptr @__gxx_personality_v0 {
  %3 = alloca ptr, align 8
  %4 = alloca ptr, align 8
  %5 = alloca ptr, align 8
  %6 = alloca i32, align 4
  store ptr %0, ptr %3, align 8, !tbaa !3
  store ptr %1, ptr %4, align 8, !tbaa !3
  %7 = load ptr, ptr %3, align 8
  %8 = getelementptr inbounds i8, ptr %7, i64 0
  call void @llvm.memset.p0.i64(ptr align 8 %8, i8 0, i64 8, i1 false)
  call void @_ZN6icu_777UObjectC2Ev(ptr noundef nonnull align 8 dereferenceable(8) %7) #6
  store ptr getelementptr inbounds inrange(-16, 24) ({ [5 x ptr] }, ptr @_ZTVN6icu_7718TimeZoneTransitionE, i32 0, i32 0, i32 2), ptr %7, align 8, !tbaa !12
  %9 = getelementptr inbounds nuw %"class.icu_77::TimeZoneTransition", ptr %7, i32 0, i32 1
  %10 = load ptr, ptr %4, align 8, !tbaa !3
  %11 = getelementptr inbounds nuw %"class.icu_77::TimeZoneTransition", ptr %10, i32 0, i32 1
  %12 = load double, ptr %11, align 8, !tbaa !14
  store double %12, ptr %9, align 8, !tbaa !14
  %13 = getelementptr inbounds nuw %"class.icu_77::TimeZoneTransition", ptr %7, i32 0, i32 2
  store ptr null, ptr %13, align 8, !tbaa !17
  %14 = getelementptr inbounds nuw %"class.icu_77::TimeZoneTransition", ptr %7, i32 0, i32 3
  store ptr null, ptr %14, align 8, !tbaa !18
  %15 = load ptr, ptr %4, align 8, !tbaa !3
  %16 = getelementptr inbounds nuw %"class.icu_77::TimeZoneTransition", ptr %15, i32 0, i32 2
  %17 = load ptr, ptr %16, align 8, !tbaa !17
  %18 = icmp ne ptr %17, null
  br i1 %18, label %19, label %33

19:                                               ; preds = %2
  %20 = load ptr, ptr %4, align 8, !tbaa !3
  %21 = getelementptr inbounds nuw %"class.icu_77::TimeZoneTransition", ptr %20, i32 0, i32 2
  %22 = load ptr, ptr %21, align 8, !tbaa !17
  %23 = load ptr, ptr %22, align 8, !tbaa !12
  %24 = getelementptr inbounds ptr, ptr %23, i64 3
  %25 = load ptr, ptr %24, align 8
  %26 = invoke noundef ptr %25(ptr noundef nonnull align 8 dereferenceable(80) %22)
          to label %27 unwind label %29

27:                                               ; preds = %19
  %28 = getelementptr inbounds nuw %"class.icu_77::TimeZoneTransition", ptr %7, i32 0, i32 2
  store ptr %26, ptr %28, align 8, !tbaa !17
  br label %33

29:                                               ; preds = %38, %19
  %30 = landingpad { ptr, i32 }
          cleanup
  %31 = extractvalue { ptr, i32 } %30, 0
  store ptr %31, ptr %5, align 8
  %32 = extractvalue { ptr, i32 } %30, 1
  store i32 %32, ptr %6, align 4
  call void @_ZN6icu_777UObjectD2Ev(ptr noundef nonnull align 8 dereferenceable(8) %7) #6
  br label %49

33:                                               ; preds = %27, %2
  %34 = load ptr, ptr %4, align 8, !tbaa !3
  %35 = getelementptr inbounds nuw %"class.icu_77::TimeZoneTransition", ptr %34, i32 0, i32 3
  %36 = load ptr, ptr %35, align 8, !tbaa !18
  %37 = icmp ne ptr %36, null
  br i1 %37, label %38, label %48

38:                                               ; preds = %33
  %39 = load ptr, ptr %4, align 8, !tbaa !3
  %40 = getelementptr inbounds nuw %"class.icu_77::TimeZoneTransition", ptr %39, i32 0, i32 3
  %41 = load ptr, ptr %40, align 8, !tbaa !18
  %42 = load ptr, ptr %41, align 8, !tbaa !12
  %43 = getelementptr inbounds ptr, ptr %42, i64 3
  %44 = load ptr, ptr %43, align 8
  %45 = invoke noundef ptr %44(ptr noundef nonnull align 8 dereferenceable(80) %41)
          to label %46 unwind label %29

46:                                               ; preds = %38
  %47 = getelementptr inbounds nuw %"class.icu_77::TimeZoneTransition", ptr %7, i32 0, i32 3
  store ptr %45, ptr %47, align 8, !tbaa !18
  br label %48

48:                                               ; preds = %46, %33
  ret void

49:                                               ; preds = %29
  %50 = load ptr, ptr %5, align 8
  %51 = load i32, ptr %6, align 4
  %52 = insertvalue { ptr, i32 } poison, ptr %50, 0
  %53 = insertvalue { ptr, i32 } %52, i32 %51, 1
  resume { ptr, i32 } %53
}