; Function Attrs: mustprogress uwtable
define void @_ZN6icu_7718TimeZoneTransitionC2ERKS0_(ptr noundef nonnull align 8 dereferenceable(32) initializes((0, 32)) %0, ptr noundef nonnull readonly align 8 captures(none) dereferenceable(32) %1) unnamed_addr #1 align 2 personality ptr @__gxx_personality_v0 {
  store ptr getelementptr inbounds nuw inrange(-16, 24) (i8, ptr @_ZTVN6icu_7718TimeZoneTransitionE, i64 16), ptr %0, align 8, !tbaa !3
  %3 = getelementptr inbounds nuw i8, ptr %0, i64 8
  %4 = getelementptr inbounds nuw i8, ptr %1, i64 8
  %5 = load double, ptr %4, align 8, !tbaa !6
  store double %5, ptr %3, align 8, !tbaa !6
  %6 = getelementptr inbounds nuw i8, ptr %0, i64 16
  %7 = getelementptr inbounds nuw i8, ptr %0, i64 24
  %8 = getelementptr inbounds nuw i8, ptr %1, i64 16
  tail call void @llvm.memset.p0.i64(ptr noundef nonnull align 8 dereferenceable(16) %6, i8 0, i64 16, i1 false)
  %9 = load ptr, ptr %8, align 8, !tbaa !13
  %.not = icmp eq ptr %9, null
  br i1 %.not, label %18, label %10

10:                                               ; preds = %2
  %11 = load ptr, ptr %9, align 8, !tbaa !3
  %12 = getelementptr inbounds nuw i8, ptr %11, i64 24
  %13 = load ptr, ptr %12, align 8
  %14 = invoke noundef ptr %13(ptr noundef nonnull align 8 dereferenceable(80) %9)
          to label %15 unwind label %16

15:                                               ; preds = %10
  store ptr %14, ptr %6, align 8, !tbaa !13
  br label %18

16:                                               ; preds = %21, %10
  %17 = landingpad { ptr, i32 }
          cleanup
  tail call void @_ZN6icu_777UObjectD2Ev(ptr noundef nonnull align 8 dereferenceable(8) %0) #8
  resume { ptr, i32 } %17

18:                                               ; preds = %15, %2
  %19 = getelementptr inbounds nuw i8, ptr %1, i64 24
  %20 = load ptr, ptr %19, align 8, !tbaa !14
  %.not8 = icmp eq ptr %20, null
  br i1 %.not8, label %27, label %21

21:                                               ; preds = %18
  %22 = load ptr, ptr %20, align 8, !tbaa !3
  %23 = getelementptr inbounds nuw i8, ptr %22, i64 24
  %24 = load ptr, ptr %23, align 8
  %25 = invoke noundef ptr %24(ptr noundef nonnull align 8 dereferenceable(80) %20)
          to label %26 unwind label %16

26:                                               ; preds = %21
  store ptr %25, ptr %7, align 8, !tbaa !14
  br label %27

27:                                               ; preds = %26, %18
  ret void
}